target datalayout = "e-m:e-p270:32:32-p271:32:32-p272:64:64-i64:64-i128:128-f80:128-n8:16:32:64-S128"
target triple = "x86_64-pc-linux-gnu"

%struct._zval_struct = type { %union._zend_value, %union.anon, %union.anon.2 }
%union._zend_value = type { i64 }
%union.anon = type { i32 }
%union.anon.2 = type { i32 }
%struct._pdo_dbh_t = type { ptr, ptr, ptr, ptr, i32, ptr, i64, [6 x i8], i32, i32, i32, ptr, i64, i32, [2 x ptr], ptr, ptr, %struct._zval_struct, ptr, %struct._zval_struct, i32 }
%struct.pdo_sqlite_db_handle = type { ptr, %struct.pdo_sqlite_error_info, ptr, ptr }
%struct.pdo_sqlite_error_info = type { ptr, i32, i32, ptr }

; Function Attrs: nounwind uwtable
define internal zeroext i1 @pdo_sqlite_set_attr(ptr noundef %0, i64 noundef %1, ptr noundef %2) #0 {
  %4 = alloca i1, align 1
  %5 = alloca ptr, align 8
  %6 = alloca i64, align 8
  %7 = alloca ptr, align 8
  %8 = alloca ptr, align 8
  %9 = alloca i64, align 8
  store ptr %0, ptr %5, align 8
  store i64 %1, ptr %6, align 8
  store ptr %2, ptr %7, align 8
  %10 = load ptr, ptr %5, align 8
  %11 = getelementptr inbounds %struct._pdo_dbh_t, ptr %10, i32 0, i32 1
  %12 = load ptr, ptr %11, align 8
  store ptr %12, ptr %8, align 8
  %13 = load i64, ptr %6, align 8
  switch i64 %13, label %37 [
    i64 2, label %14
    i64 1002, label %26
  ]

14:                                               ; preds = %3
  %15 = load ptr, ptr %7, align 8
  %16 = call zeroext i1 @pdo_get_long_param(ptr noundef %9, ptr noundef %15)
  br i1 %16, label %18, label %17

17:                                               ; preds = %14
  store i1 false, ptr %4, align 1
  br label %38

18:                                               ; preds = %14
  %19 = load ptr, ptr %8, align 8
  %20 = getelementptr inbounds %struct.pdo_sqlite_db_handle, ptr %19, i32 0, i32 0
  %21 = load ptr, ptr %20, align 8
  %22 = load i64, ptr %9, align 8
  %23 = mul nsw i64 %22, 1000
  %24 = trunc i64 %23 to i32
  %25 = call i32 @sqlite3_busy_timeout(ptr noundef %21, i32 noundef %24)
  store i1 true, ptr %4, align 1
  br label %38

26:                                               ; preds = %3
  %27 = load ptr, ptr %7, align 8
  %28 = call zeroext i1 @pdo_get_long_param(ptr noundef %9, ptr noundef %27)
  br i1 %28, label %30, label %29

29:                                               ; preds = %26
  store i1 false, ptr %4, align 1
  br label %38

30:                                               ; preds = %26
  %31 = load ptr, ptr %8, align 8
  %32 = getelementptr inbounds %struct.pdo_sqlite_db_handle, ptr %31, i32 0, i32 0
  %33 = load ptr, ptr %32, align 8
  %34 = load i64, ptr %9, align 8
  %35 = trunc i64 %34 to i32
  %36 = call i32 @sqlite3_extended_result_codes(ptr noundef %33, i32 noundef %35)
  store i1 true, ptr %4, align 1
  br label %38

37:                                               ; preds = %3
  store i1 false, ptr %4, align 1
  br label %38

38:                                               ; preds = %37, %30, %29, %18, %17
  %39 = load i1, ptr %4, align 1
  ret i1 %39
}