; Function Attrs: nounwind uwtable
define internal noundef zeroext i1 @pdo_sqlite_set_attr(ptr nocapture noundef readonly %0, i64 noundef %1, ptr noundef %2) #0 {
  %4 = alloca i64, align 8
  %5 = getelementptr inbounds i8, ptr %0, i64 8
  %6 = load ptr, ptr %5, align 8
  switch i64 %1, label %22 [
    i64 2, label %7
    i64 1002, label %15
  ]

7:                                                ; preds = %3
  %8 = call zeroext i1 @pdo_get_long_param(ptr noundef nonnull %4, ptr noundef %2) #11
  br i1 %8, label %9, label %22

9:                                                ; preds = %7
  %10 = load ptr, ptr %6, align 8
  %11 = load i64, ptr %4, align 8
  %12 = trunc i64 %11 to i32
  %13 = mul i32 %12, 1000
  %14 = call i32 @sqlite3_busy_timeout(ptr noundef %10, i32 noundef %13) #11
  br label %22

15:                                               ; preds = %3
  %16 = call zeroext i1 @pdo_get_long_param(ptr noundef nonnull %4, ptr noundef %2) #11
  br i1 %16, label %17, label %22

17:                                               ; preds = %15
  %18 = load ptr, ptr %6, align 8
  %19 = load i64, ptr %4, align 8
  %20 = trunc i64 %19 to i32
  %21 = call i32 @sqlite3_extended_result_codes(ptr noundef %18, i32 noundef %20) #11
  br label %22

22:                                               ; preds = %3, %15, %7, %17, %9
  %.0 = phi i1 [ true, %17 ], [ true, %9 ], [ false, %7 ], [ false, %15 ], [ false, %3 ]
  ret i1 %.0
}